target datalayout = "e-m:e-p270:32:32-p271:32:32-p272:64:64-i64:64-i128:128-f80:128-n8:16:32:64-S128"
target triple = "x86_64-pc-linux-gnu"

%struct.pcre2_memctl = type { ptr, ptr, ptr }
%struct.sljit_compiler = type { i32, i32, ptr, ptr, ptr, ptr, ptr, ptr, ptr, ptr, ptr, ptr, ptr, ptr, i32, i32, i32, i32, i32, i64, i64, i64, i32 }
%struct.sljit_memory_fragment = type { ptr, i64, [1 x i8] }
%struct.jump_list = type { ptr, ptr }

; Function Attrs: nounwind uwtable
define internal ptr @pcre2_jit_malloc(i64 noundef %0, ptr noundef %1) #0 {
  %3 = alloca i64, align 8
  %4 = alloca ptr, align 8
  %5 = alloca ptr, align 8
  store i64 %0, ptr %3, align 8
  store ptr %1, ptr %4, align 8
  %6 = load ptr, ptr %4, align 8
  store ptr %6, ptr %5, align 8
  %7 = load ptr, ptr %5, align 8
  %8 = getelementptr inbounds %struct.pcre2_memctl, ptr %7, i32 0, i32 0
  %9 = load ptr, ptr %8, align 8
  %10 = load i64, ptr %3, align 8
  %11 = load ptr, ptr %5, align 8
  %12 = getelementptr inbounds %struct.pcre2_memctl, ptr %11, i32 0, i32 2
  %13 = load ptr, ptr %12, align 8
  %14 = call ptr %9(i64 noundef %10, ptr noundef %13)
  ret ptr %14
}

; Function Attrs: nounwind uwtable
define internal ptr @ensure_abuf(ptr noundef %0, i64 noundef %1) #0 {
  %3 = alloca ptr, align 8
  %4 = alloca ptr, align 8
  %5 = alloca i64, align 8
  %6 = alloca ptr, align 8
  %7 = alloca ptr, align 8
  store ptr %0, ptr %4, align 8
  store i64 %1, ptr %5, align 8
  br label %8

8:                                                ; preds = %2
  br label %9

9:                                                ; preds = %8
  %10 = load ptr, ptr %4, align 8
  %11 = getelementptr inbounds %struct.sljit_compiler, ptr %10, i32 0, i32 13
  %12 = load ptr, ptr %11, align 8
  %13 = getelementptr inbounds %struct.sljit_memory_fragment, ptr %12, i32 0, i32 1
  %14 = load i64, ptr %13, align 8
  %15 = load i64, ptr %5, align 8
  %16 = add i64 %14, %15
  %17 = icmp ule i64 %16, sub (i64 4096, i64 sub nsw (i64 ptrtoint (ptr getelementptr inbounds (%struct.sljit_memory_fragment, ptr inttoptr (i64 16 to ptr), i32 0, i32 2) to i64), i64 16))
  br i1 %17, label %18, label %38

18:                                               ; preds = %9
  %19 = load ptr, ptr %4, align 8
  %20 = getelementptr inbounds %struct.sljit_compiler, ptr %19, i32 0, i32 13
  %21 = load ptr, ptr %20, align 8
  %22 = getelementptr inbounds %struct.sljit_memory_fragment, ptr %21, i32 0, i32 2
  %23 = getelementptr inbounds [1 x i8], ptr %22, i64 0, i64 0
  %24 = load ptr, ptr %4, align 8
  %25 = getelementptr inbounds %struct.sljit_compiler, ptr %24, i32 0, i32 13
  %26 = load ptr, ptr %25, align 8
  %27 = getelementptr inbounds %struct.sljit_memory_fragment, ptr %26, i32 0, i32 1
  %28 = load i64, ptr %27, align 8
  %29 = getelementptr inbounds i8, ptr %23, i64 %28
  store ptr %29, ptr %6, align 8
  %30 = load i64, ptr %5, align 8
  %31 = load ptr, ptr %4, align 8
  %32 = getelementptr inbounds %struct.sljit_compiler, ptr %31, i32 0, i32 13
  %33 = load ptr, ptr %32, align 8
  %34 = getelementptr inbounds %struct.sljit_memory_fragment, ptr %33, i32 0, i32 1
  %35 = load i64, ptr %34, align 8
  %36 = add i64 %35, %30
  store i64 %36, ptr %34, align 8
  %37 = load ptr, ptr %6, align 8
  store ptr %37, ptr %3, align 8
  br label %69

38:                                               ; preds = %9
  %39 = load ptr, ptr %4, align 8
  %40 = getelementptr inbounds %struct.sljit_compiler, ptr %39, i32 0, i32 10
  %41 = load ptr, ptr %40, align 8
  %42 = call ptr @pcre2_jit_malloc(i64 noundef 4096, ptr noundef %41)
  store ptr %42, ptr %7, align 8
  br label %43

43:                                               ; preds = %38
  %44 = load ptr, ptr %7, align 8
  %45 = icmp ne ptr %44, null
  %46 = xor i1 %45, true
  %47 = zext i1 %46 to i32
  %48 = sext i32 %47 to i64
  %49 = icmp ne i64 %48, 0
  br i1 %49, label %50, label %53

50:                                               ; preds = %43
  %51 = load ptr, ptr %4, align 8
  %52 = getelementptr inbounds %struct.sljit_compiler, ptr %51, i32 0, i32 0
  store i32 2, ptr %52, align 8
  store ptr null, ptr %3, align 8
  br label %69

53:                                               ; preds = %43
  br label %54

54:                                               ; preds = %53
  %55 = load ptr, ptr %4, align 8
  %56 = getelementptr inbounds %struct.sljit_compiler, ptr %55, i32 0, i32 13
  %57 = load ptr, ptr %56, align 8
  %58 = load ptr, ptr %7, align 8
  %59 = getelementptr inbounds %struct.sljit_memory_fragment, ptr %58, i32 0, i32 0
  store ptr %57, ptr %59, align 8
  %60 = load ptr, ptr %7, align 8
  %61 = load ptr, ptr %4, align 8
  %62 = getelementptr inbounds %struct.sljit_compiler, ptr %61, i32 0, i32 13
  store ptr %60, ptr %62, align 8
  %63 = load i64, ptr %5, align 8
  %64 = load ptr, ptr %7, align 8
  %65 = getelementptr inbounds %struct.sljit_memory_fragment, ptr %64, i32 0, i32 1
  store i64 %63, ptr %65, align 8
  %66 = load ptr, ptr %7, align 8
  %67 = getelementptr inbounds %struct.sljit_memory_fragment, ptr %66, i32 0, i32 2
  %68 = getelementptr inbounds [1 x i8], ptr %67, i64 0, i64 0
  store ptr %68, ptr %3, align 8
  br label %69

69:                                               ; preds = %54, %50, %18
  %70 = load ptr, ptr %3, align 8
  ret ptr %70
}

; Function Attrs: nounwind uwtable
define internal ptr @sljit_alloc_memory(ptr noundef %0, i32 noundef %1) #0 {
  %3 = alloca ptr, align 8
  %4 = alloca ptr, align 8
  %5 = alloca i32, align 4
  store ptr %0, ptr %4, align 8
  store i32 %1, ptr %5, align 4
  br label %6

6:                                                ; preds = %2
  %7 = load ptr, ptr %4, align 8
  %8 = getelementptr inbounds %struct.sljit_compiler, ptr %7, i32 0, i32 0
  %9 = load i32, ptr %8, align 8
  %10 = sext i32 %9 to i64
  %11 = icmp ne i64 %10, 0
  br i1 %11, label %12, label %13

12:                                               ; preds = %6
  store ptr null, ptr %3, align 8
  br label %29

13:                                               ; preds = %6
  br label %14

14:                                               ; preds = %13
  %15 = load i32, ptr %5, align 4
  %16 = icmp sle i32 %15, 0
  br i1 %16, label %20, label %17

17:                                               ; preds = %14
  %18 = load i32, ptr %5, align 4
  %19 = icmp sgt i32 %18, 128
  br i1 %19, label %20, label %21

20:                                               ; preds = %17, %14
  store ptr null, ptr %3, align 8
  br label %29

21:                                               ; preds = %17
  %22 = load i32, ptr %5, align 4
  %23 = add nsw i32 %22, 7
  %24 = and i32 %23, -8
  store i32 %24, ptr %5, align 4
  %25 = load ptr, ptr %4, align 8
  %26 = load i32, ptr %5, align 4
  %27 = sext i32 %26 to i64
  %28 = call ptr @ensure_abuf(ptr noundef %25, i64 noundef %27)
  store ptr %28, ptr %3, align 8
  br label %29

29:                                               ; preds = %21, %20, %12
  %30 = load ptr, ptr %3, align 8
  ret ptr %30
}

; Function Attrs: nounwind uwtable
define internal void @add_jump(ptr noundef %0, ptr noundef %1, ptr noundef %2) #0 {
  %4 = alloca ptr, align 8
  %5 = alloca ptr, align 8
  %6 = alloca ptr, align 8
  %7 = alloca ptr, align 8
  store ptr %0, ptr %4, align 8
  store ptr %1, ptr %5, align 8
  store ptr %2, ptr %6, align 8
  %8 = load ptr, ptr %4, align 8
  %9 = call ptr @sljit_alloc_memory(ptr noundef %8, i32 noundef 16)
  store ptr %9, ptr %7, align 8
  %10 = load ptr, ptr %7, align 8
  %11 = icmp ne ptr %10, null
  br i1 %11, label %12, label %22

12:                                               ; preds = %3
  %13 = load ptr, ptr %5, align 8
  %14 = load ptr, ptr %13, align 8
  %15 = load ptr, ptr %7, align 8
  %16 = getelementptr inbounds %struct.jump_list, ptr %15, i32 0, i32 1
  store ptr %14, ptr %16, align 8
  %17 = load ptr, ptr %6, align 8
  %18 = load ptr, ptr %7, align 8
  %19 = getelementptr inbounds %struct.jump_list, ptr %18, i32 0, i32 0
  store ptr %17, ptr %19, align 8
  %20 = load ptr, ptr %7, align 8
  %21 = load ptr, ptr %5, align 8
  store ptr %20, ptr %21, align 8
  br label %22

22:                                               ; preds = %12, %3
  ret void
}