; Function Attrs: nounwind uwtable
define internal fastcc void @add_jump(ptr nocapture noundef %0, ptr nocapture noundef %1, ptr noundef %2) unnamed_addr #0 {
  %4 = load i32, ptr %0, align 8
  %.not.i = icmp eq i32 %4, 0
  br i1 %.not.i, label %5, label %sljit_alloc_memory.exit.thread

5:                                                ; preds = %3
  %6 = getelementptr inbounds i8, ptr %0, i64 96
  %7 = load ptr, ptr %6, align 8
  %8 = getelementptr inbounds i8, ptr %7, i64 8
  %9 = load i64, ptr %8, align 8
  %10 = add i64 %9, 16
  %11 = icmp ult i64 %10, 4081
  br i1 %11, label %12, label %15

12:                                               ; preds = %5
  %13 = getelementptr inbounds i8, ptr %7, i64 16
  %14 = getelementptr inbounds i8, ptr %13, i64 %9
  store i64 %10, ptr %8, align 8
  br label %sljit_alloc_memory.exit

15:                                               ; preds = %5
  %16 = getelementptr inbounds i8, ptr %0, i64 72
  %17 = load ptr, ptr %16, align 8
  %.val.i.i = load ptr, ptr %17, align 8
  %18 = getelementptr i8, ptr %17, i64 16
  %.val18.i.i = load ptr, ptr %18, align 8
  %19 = tail call ptr %.val.i.i(i64 noundef 4096, ptr noundef %.val18.i.i) #18
  %.not.i.i = icmp eq ptr %19, null
  br i1 %.not.i.i, label %20, label %21

20:                                               ; preds = %15
  store i32 2, ptr %0, align 8
  br label %sljit_alloc_memory.exit.thread

21:                                               ; preds = %15
  %22 = load ptr, ptr %6, align 8
  store ptr %22, ptr %19, align 8
  store ptr %19, ptr %6, align 8
  %23 = getelementptr inbounds i8, ptr %19, i64 8
  store i64 16, ptr %23, align 8
  %24 = getelementptr inbounds i8, ptr %19, i64 16
  br label %sljit_alloc_memory.exit

sljit_alloc_memory.exit:                          ; preds = %21, %12
  %.0.i = phi ptr [ %14, %12 ], [ %24, %21 ]
  %25 = load ptr, ptr %1, align 8
  %26 = getelementptr inbounds i8, ptr %.0.i, i64 8
  store ptr %25, ptr %26, align 8
  store ptr %2, ptr %.0.i, align 8
  store ptr %.0.i, ptr %1, align 8
  br label %sljit_alloc_memory.exit.thread

sljit_alloc_memory.exit.thread:                   ; preds = %20, %3, %sljit_alloc_memory.exit
  ret void
}